0000000000000000 <monad_spinlock_init_disas>:
   0:	f3 0f 1e fa          	endbr64
   4:	48 c7 07 00 00 00 00 	movq   $0x0,(%rdi)
   b:	c3                   	ret
   c:	0f 1f 40 00          	nopl   0x0(%rax)

0000000000000010 <monad_spinlock_try_lock_disas>:
  10:	f3 0f 1e fa          	endbr64
  14:	48 83 ec 18          	sub    $0x18,%rsp
  18:	48 8b 05 00 00 00 00 	mov    0x0(%rip),%rax        # 1f <monad_spinlock_try_lock_disas+0xf>
  1f:	64 48 8b 10          	mov    %fs:(%rax),%rdx
  23:	48 85 d2             	test   %rdx,%rdx
  26:	74 18                	je     40 <monad_spinlock_try_lock_disas+0x30>
  28:	31 c0                	xor    %eax,%eax
  2a:	f0 48 0f b1 17       	lock cmpxchg %rdx,(%rdi)
  2f:	0f 94 c0             	sete   %al
  32:	48 83 c4 18          	add    $0x18,%rsp
  36:	c3                   	ret
  37:	66 0f 1f 84 00 00 00 	nopw   0x0(%rax,%rax,1)
  3e:	00 00 
  40:	48 89 7c 24 08       	mov    %rdi,0x8(%rsp)
  45:	e8 00 00 00 00       	call   4a <monad_spinlock_try_lock_disas+0x3a>
  4a:	48 8b 05 00 00 00 00 	mov    0x0(%rip),%rax        # 51 <monad_spinlock_try_lock_disas+0x41>
  51:	48 8b 7c 24 08       	mov    0x8(%rsp),%rdi
  56:	64 48 8b 10          	mov    %fs:(%rax),%rdx
  5a:	eb cc                	jmp    28 <monad_spinlock_try_lock_disas+0x18>
  5c:	0f 1f 40 00          	nopl   0x0(%rax)

0000000000000060 <monad_spinlock_lock_disas>:
  60:	f3 0f 1e fa          	endbr64
  64:	48 83 ec 18          	sub    $0x18,%rsp
  68:	48 8b 05 00 00 00 00 	mov    0x0(%rip),%rax        # 6f <monad_spinlock_lock_disas+0xf>
  6f:	64 48 8b 10          	mov    %fs:(%rax),%rdx
  73:	48 85 d2             	test   %rdx,%rdx
  76:	74 28                	je     a0 <monad_spinlock_lock_disas+0x40>
  78:	31 c0                	xor    %eax,%eax
  7a:	f0 48 0f b1 17       	lock cmpxchg %rdx,(%rdi)
  7f:	75 0f                	jne    90 <monad_spinlock_lock_disas+0x30>
  81:	48 83 c4 18          	add    $0x18,%rsp
  85:	c3                   	ret
  86:	66 90                	xchg   %ax,%ax
  88:	0f 1f 84 00 00 00 00 	nopl   0x0(%rax,%rax,1)
  8f:	00 
  90:	f3 90                	pause
  92:	31 c0                	xor    %eax,%eax
  94:	f0 48 0f b1 17       	lock cmpxchg %rdx,(%rdi)
  99:	75 f5                	jne    90 <monad_spinlock_lock_disas+0x30>
  9b:	48 83 c4 18          	add    $0x18,%rsp
  9f:	c3                   	ret
  a0:	48 89 7c 24 08       	mov    %rdi,0x8(%rsp)
  a5:	e8 00 00 00 00       	call   aa <monad_spinlock_lock_disas+0x4a>
  aa:	48 8b 05 00 00 00 00 	mov    0x0(%rip),%rax        # b1 <monad_spinlock_lock_disas+0x51>
  b1:	48 8b 7c 24 08       	mov    0x8(%rsp),%rdi
  b6:	64 48 8b 10          	mov    %fs:(%rax),%rdx
  ba:	eb bc                	jmp    78 <monad_spinlock_lock_disas+0x18>
  bc:	0f 1f 40 00          	nopl   0x0(%rax)

00000000000000c0 <monad_spinlock_unlock_disas>:
  c0:	f3 0f 1e fa          	endbr64
  c4:	48 c7 07 00 00 00 00 	movq   $0x0,(%rdi)
  cb:	c3                   	ret
